Certificate:
    Data:
        Version: 3 (0x2)
        Serial Number:
            83:62:ed:bf:cc:13:2c:19
    Signature Algorithm: sha1WithRSAEncryption
        Issuer: C=AU, ST=Some-State, O=Internet Widgits Pty Ltd, CN=efw CA1
        Validity
            Not Before: Aug 26 16:26:25 2013 GMT
            Not After : Aug 25 16:26:25 2016 GMT
        Subject: C=AU, ST=Some-State, O=Internet Widgits Pty Ltd, CN=efw CA1
        Subject Public Key Info:
            Public Key Algorithm: rsaEncryption
                Public-Key: (1024 bit)
                Modulus:
                    00:e0:21:f4:22:9a:5b:55:4c:d6:64:b1:b9:20:02:
                    75:4f:a9:97:9a:c2:28:5e:99:15:fb:48:71:ac:cf:
                    50:36:f1:76:e2:2d:55:ab:ab:9b:3b:81:b7:8f:d8:
                    8f:98:6d:1c:12:d8:49:6c:3e:af:8f:98:c3:cd:25:
                    9d:47:df:23:a0:1a:05:9f:2f:ad:16:6a:51:a2:c0:
                    28:f0:28:76:68:74:42:19:f5:78:b5:6f:f8:1b:98:
                    39:a7:e8:93:d1:aa:23:ce:5b:bd:d9:4b:dd:a4:58:
                    e1:bd:0d:7e:87:e7:47:34:ad:50:92:15:97:81:a0:
                    84:6d:00:9b:17:d0:b5:a8:f1
                Exponent: 65537 (0x10001)
        X509v3 extensions:
            X509v3 Subject Key Identifier: 
                BA:28:F7:E3:C7:EF:FC:A5:B0:00:F7:3B:3F:F1:96:A2:35:92:86:09
            X509v3 Authority Key Identifier: 
                keyid:BA:28:F7:E3:C7:EF:FC:A5:B0:00:F7:3B:3F:F1:96:A2:35:92:86:09

            X509v3 Basic Constraints: 
                CA:TRUE
    Signature Algorithm: sha1WithRSAEncryption
         73:ae:8f:8f:67:3a:a8:f1:07:db:19:6a:78:cb:59:7b:d0:ac:
         85:70:39:ff:d8:80:85:47:a5:1f:35:54:da:49:fe:ea:2e:42:
         24:e5:5c:95:5a:c3:a1:67:88:c3:b4:ed:4c:6a:a8:de:1b:ea:
         34:c5:2c:99:5c:cb:33:a1:c6:7a:bc:4f:ab:a5:4f:80:8d:8a:
         3b:0e:46:f9:da:5d:f8:a6:41:ea:d8:f0:2d:37:32:55:1c:a1:
         3c:30:cf:93:70:46:40:58:0c:24:e3:99:da:4b:a8:fc:df:e2:
         f2:92:54:e9:e2:1f:76:9a:7c:47:be:75:22:90:0c:75:71:cd:
         fe:b3
-----BEGIN CERTIFICATE-----
MIICfDCCAeWgAwIBAgIJAINi7b/MEywZMA0GCSqGSIb3DQEBBQUAMFcxCzAJBgNV
BAYTAkFVMRMwEQYDVQQIDApTb21lLVN0YXRlMSEwHwYDVQQKDBhJbnRlcm5ldCBX
aWRnaXRzIFB0eSBMdGQxEDAOBgNVBAMMB2VmdyBDQTEwHhcNMTMwODI2MTYyNjI1
WhcNMTYwODI1MTYyNjI1WjBXMQswCQYDVQQGEwJBVTETMBEGA1UECAwKU29tZS1T
dGF0ZTEhMB8GA1UECgwYSW50ZXJuZXQgV2lkZ2l0cyBQdHkgTHRkMRAwDgYDVQQD
DAdlZncgQ0ExMIGfMA0GCSqGSIb3DQEBAQUAA4GNADCBiQKBgQDgIfQimltVTNZk
sbkgAnVPqZeawihemRX7SHGsz1A28XbiLVWrq5s7gbeP2I+YbRwS2ElsPq+PmMPN
JZ1H3yOgGgWfL60WalGiwCjwKHZodEIZ9Xi1b/gbmDmn6JPRqiPOW73ZS92kWOG9
DX6H50c0rVCSFZeBoIRtAJsX0LWo8QIDAQABo1AwTjAdBgNVHQ4EFgQUuij348fv
/KWwAPc7P/GWojWShgkwHwYDVR0jBBgwFoAUuij348fv/KWwAPc7P/GWojWShgkw
DAYDVR0TBAUwAwEB/zANBgkqhkiG9w0BAQUFAAOBgQBzro+PZzqo8QfbGWp4y1l7
0KyFcDn/2ICFR6UfNVTaSf7qLkIk5VyVWsOhZ4jDtO1MaqjeG+o0xSyZXMszocZ6
vE+rpU+AjYo7Dkb52l34pkHq2PAtNzJVHKE8MM+TcEZAWAwk45naS6j83+LyklTp
4h92mnxHvnUikAx1cc3+sw==
-----END CERTIFICATE-----
