Certificate:
    Data:
        Version: 3 (0x2)
        Serial Number:
            e4:44:03:74:67:21:e1:22
    Signature Algorithm: sha1WithRSAEncryption
        Issuer: C=AU, ST=Some-State, O=Internet Widgits Pty Ltd, CN=efw CA2
        Validity
            Not Before: Aug 28 09:16:38 2013 GMT
            Not After : Aug 27 09:16:38 2016 GMT
        Subject: C=AU, ST=Some-State, O=Internet Widgits Pty Ltd, CN=efw CA2
        Subject Public Key Info:
            Public Key Algorithm: rsaEncryption
                Public-Key: (1024 bit)
                Modulus:
                    00:e6:4c:bd:8f:ee:4d:4b:0d:e3:e3:a9:c3:54:05:
                    46:4b:c0:59:5b:3f:61:ad:75:eb:00:ec:48:1f:95:
                    4d:ee:e9:d1:50:bd:d9:4a:e4:8d:b1:93:4a:4e:a0:
                    0f:5f:d9:cb:23:a4:f8:6e:b4:89:58:7c:b1:49:ef:
                    88:30:3d:16:8f:d9:d0:59:3d:98:2a:b0:43:57:c8:
                    b4:c4:6e:92:51:8d:42:7b:3c:09:36:4b:e0:f5:d2:
                    52:7e:20:38:34:29:1f:b0:35:ca:d4:61:fa:28:e3:
                    77:9f:6e:00:ec:dc:92:6c:9d:18:cd:ca:fa:a5:f3:
                    08:2c:20:62:46:69:87:c5:c1
                Exponent: 65537 (0x10001)
        X509v3 extensions:
            X509v3 Subject Key Identifier: 
                A2:58:78:50:E7:07:53:28:11:3B:9B:86:DE:A5:5E:53:34:09:A0:B1
            X509v3 Authority Key Identifier: 
                keyid:A2:58:78:50:E7:07:53:28:11:3B:9B:86:DE:A5:5E:53:34:09:A0:B1

            X509v3 Basic Constraints: 
                CA:TRUE
    Signature Algorithm: sha1WithRSAEncryption
         89:1b:7c:aa:4f:74:58:48:1a:59:5f:aa:65:80:ac:85:0b:d7:
         36:1b:8d:48:b4:d2:35:6b:d8:d4:50:63:27:d0:d0:e6:7d:65:
         55:06:4b:4e:6a:f0:03:99:49:c2:63:7c:43:d9:b5:a2:59:3b:
         94:f3:09:a6:cf:31:e4:51:87:82:b0:68:77:f0:52:5a:1d:fa:
         60:1d:c6:ec:d4:b8:5a:01:ed:2e:9e:b0:05:1f:24:c6:fa:75:
         57:ce:c4:68:46:c2:e8:d4:33:72:b9:8f:f8:0e:7c:e4:35:d3:
         4e:e2:f7:62:ef:08:38:bc:6a:3c:a1:7c:7a:f5:f3:65:da:36:
         91:d4
-----BEGIN CERTIFICATE-----
MIICfDCCAeWgAwIBAgIJAOREA3RnIeEiMA0GCSqGSIb3DQEBBQUAMFcxCzAJBgNV
BAYTAkFVMRMwEQYDVQQIDApTb21lLVN0YXRlMSEwHwYDVQQKDBhJbnRlcm5ldCBX
aWRnaXRzIFB0eSBMdGQxEDAOBgNVBAMMB2VmdyBDQTIwHhcNMTMwODI4MDkxNjM4
WhcNMTYwODI3MDkxNjM4WjBXMQswCQYDVQQGEwJBVTETMBEGA1UECAwKU29tZS1T
dGF0ZTEhMB8GA1UECgwYSW50ZXJuZXQgV2lkZ2l0cyBQdHkgTHRkMRAwDgYDVQQD
DAdlZncgQ0EyMIGfMA0GCSqGSIb3DQEBAQUAA4GNADCBiQKBgQDmTL2P7k1LDePj
qcNUBUZLwFlbP2GtdesA7EgflU3u6dFQvdlK5I2xk0pOoA9f2csjpPhutIlYfLFJ
74gwPRaP2dBZPZgqsENXyLTEbpJRjUJ7PAk2S+D10lJ+IDg0KR+wNcrUYfoo43ef
bgDs3JJsnRjNyvql8wgsIGJGaYfFwQIDAQABo1AwTjAdBgNVHQ4EFgQUolh4UOcH
UygRO5uG3qVeUzQJoLEwHwYDVR0jBBgwFoAUolh4UOcHUygRO5uG3qVeUzQJoLEw
DAYDVR0TBAUwAwEB/zANBgkqhkiG9w0BAQUFAAOBgQCJG3yqT3RYSBpZX6plgKyF
C9c2G41ItNI1a9jUUGMn0NDmfWVVBktOavADmUnCY3xD2bWiWTuU8wmmzzHkUYeC
sGh38FJaHfpgHcbs1LhaAe0unrAFHyTG+nVXzsRoRsLo1DNyuY/4DnzkNdNO4vdi
7wg4vGo8oXx69fNl2jaR1A==
-----END CERTIFICATE-----
