Certificate:
    Data:
        Version: 3 (0x2)
        Serial Number:
            95:f8:8b:55:ba:be:71:81
    Signature Algorithm: sha1WithRSAEncryption
        Issuer: C=AU, ST=Some-State, O=Internet Widgits Pty Ltd, CN=ca1
        Validity
            Not Before: Aug  5 13:13:00 2013 GMT
            Not After : Aug  4 13:13:00 2016 GMT
        Subject: C=AU, ST=Some-State, O=Internet Widgits Pty Ltd, CN=ca1
        Subject Public Key Info:
            Public Key Algorithm: rsaEncryption
                Public-Key: (1024 bit)
                Modulus:
                    00:af:11:46:38:80:4b:4a:6d:38:3f:58:44:87:c0:
                    66:74:a1:3e:af:05:db:07:94:08:d2:95:98:f7:10:
                    a9:35:e8:c8:5e:ad:d1:2a:dd:1d:be:ec:e2:1b:dd:
                    95:d5:0c:8b:0f:41:11:f0:ba:6f:d2:a0:92:b3:7b:
                    78:36:67:13:6a:af:fe:8a:c3:82:9f:ed:5f:00:16:
                    ab:3a:83:94:fc:60:6b:8b:8a:7b:fc:cd:ef:82:69:
                    4b:98:3d:8e:19:5c:05:bc:77:26:8c:42:1e:fa:19:
                    0e:fb:b1:f5:be:bb:e1:01:cd:a7:5a:a8:70:b7:50:
                    15:48:22:53:33:d8:4d:0a:3d
                Exponent: 65537 (0x10001)
        X509v3 extensions:
            X509v3 Subject Key Identifier: 
                B4:BE:F9:8C:B7:9B:ED:78:63:63:67:23:34:45:3C:33:33:41:F7:03
            X509v3 Authority Key Identifier: 
                keyid:B4:BE:F9:8C:B7:9B:ED:78:63:63:67:23:34:45:3C:33:33:41:F7:03

            X509v3 Basic Constraints: 
                CA:TRUE
    Signature Algorithm: sha1WithRSAEncryption
         84:ca:73:a3:26:cb:72:09:24:d1:df:52:ef:81:96:ff:e9:fa:
         6a:8f:a6:dd:74:da:f2:e8:b9:fb:eb:81:02:46:ef:f2:f7:9c:
         47:d7:fb:d9:34:24:f7:13:f3:ba:10:f0:f9:d2:7a:33:a6:47:
         0f:c1:ba:68:5f:b0:dd:c2:f8:6f:7d:db:c8:82:51:d9:61:75:
         44:03:4b:78:27:8f:3c:d1:65:a4:3a:64:0f:bd:1b:34:cb:6c:
         da:15:6d:b0:96:75:8b:a2:5a:b3:59:00:3e:68:96:3e:11:af:
         84:d0:83:63:37:a2:6b:cc:07:61:ac:92:ae:5b:20:4c:92:71:
         0a:41
-----BEGIN CERTIFICATE-----
MIICdDCCAd2gAwIBAgIJAJX4i1W6vnGBMA0GCSqGSIb3DQEBBQUAMFMxCzAJBgNV
BAYTAkFVMRMwEQYDVQQIDApTb21lLVN0YXRlMSEwHwYDVQQKDBhJbnRlcm5ldCBX
aWRnaXRzIFB0eSBMdGQxDDAKBgNVBAMMA2NhMTAeFw0xMzA4MDUxMzEzMDBaFw0x
NjA4MDQxMzEzMDBaMFMxCzAJBgNVBAYTAkFVMRMwEQYDVQQIDApTb21lLVN0YXRl
MSEwHwYDVQQKDBhJbnRlcm5ldCBXaWRnaXRzIFB0eSBMdGQxDDAKBgNVBAMMA2Nh
MTCBnzANBgkqhkiG9w0BAQEFAAOBjQAwgYkCgYEArxFGOIBLSm04P1hEh8BmdKE+
rwXbB5QI0pWY9xCpNejIXq3RKt0dvuziG92V1QyLD0ER8Lpv0qCSs3t4NmcTaq/+
isOCn+1fABarOoOU/GBri4p7/M3vgmlLmD2OGVwFvHcmjEIe+hkO+7H1vrvhAc2n
Wqhwt1AVSCJTM9hNCj0CAwEAAaNQME4wHQYDVR0OBBYEFLS++Yy3m+14Y2NnIzRF
PDMzQfcDMB8GA1UdIwQYMBaAFLS++Yy3m+14Y2NnIzRFPDMzQfcDMAwGA1UdEwQF
MAMBAf8wDQYJKoZIhvcNAQEFBQADgYEAhMpzoybLcgkk0d9S74GW/+n6ao+m3XTa
8ui5++uBAkbv8vecR9f72TQk9xPzuhDw+dJ6M6ZHD8G6aF+w3cL4b33byIJR2WF1
RANLeCePPNFlpDpkD70bNMts2hVtsJZ1i6Jas1kAPmiWPhGvhNCDYzeia8wHYayS
rlsgTJJxCkE=
-----END CERTIFICATE-----
