Certificate:
    Data:
        Version: 3 (0x2)
        Serial Number:
            95:f8:8b:55:ba:be:71:82
    Signature Algorithm: sha1WithRSAEncryption
        Issuer: C=AU, ST=Some-State, O=Internet Widgits Pty Ltd, CN=ca1
        Validity
            Not Before: Aug  5 13:13:30 2013 GMT
            Not After : Aug  5 13:13:30 2014 GMT
        Subject: C=AU, ST=Some-State, O=Internet Widgits Pty Ltd, CN=test1
        Subject Public Key Info:
            Public Key Algorithm: rsaEncryption
                Public-Key: (1024 bit)
                Modulus:
                    00:d5:6d:94:99:00:c1:ae:73:4c:27:30:82:36:71:
                    ee:9c:28:e7:92:b2:96:f3:2e:1a:df:40:bf:20:30:
                    30:59:b1:f5:11:50:84:c3:c0:6c:34:c7:d6:cd:1c:
                    ad:d3:db:96:53:d2:dc:51:fc:35:45:90:54:60:fd:
                    fd:2b:b9:11:07:f9:47:b6:0f:dd:fb:f2:60:34:f5:
                    c7:be:a2:15:3d:62:73:d2:7c:65:57:77:25:fb:db:
                    f2:ab:4e:ab:98:f6:72:ca:cb:2b:f7:78:af:92:eb:
                    be:89:66:ac:20:b5:f1:11:9f:6f:95:b1:7c:f3:d3:
                    f3:99:d4:fa:c6:16:01:cf:e9
                Exponent: 65537 (0x10001)
        X509v3 extensions:
            X509v3 Basic Constraints: 
                CA:FALSE
            Netscape Comment: 
                OpenSSL Generated Certificate
            X509v3 Subject Key Identifier: 
                B9:CE:3B:8B:B1:B7:18:CF:74:87:FC:06:E7:7F:BE:F4:AD:A9:85:15
            X509v3 Authority Key Identifier: 
                keyid:B4:BE:F9:8C:B7:9B:ED:78:63:63:67:23:34:45:3C:33:33:41:F7:03

    Signature Algorithm: sha1WithRSAEncryption
         84:e2:5a:77:cf:42:a0:64:c5:63:0f:f7:70:8f:51:64:99:c1:
         47:df:14:1c:1b:bf:a7:ff:cb:5f:bd:9a:b6:54:05:c3:34:c9:
         83:be:6b:84:ea:d3:dd:df:4a:84:0d:a2:8f:b4:1f:6f:28:8c:
         15:0b:ba:2a:4c:5f:a0:ca:23:a5:34:8b:2b:e2:ad:7e:2b:74:
         0f:44:64:0a:b0:38:30:1c:3c:e9:09:69:a8:3c:3e:50:69:2e:
         cd:2b:c5:ba:e5:92:42:da:17:3b:43:89:4c:c5:96:90:6c:83:
         b8:d0:bb:90:83:a3:84:45:1e:ab:80:95:8a:a5:e0:31:7f:77:
         e7:a0
-----BEGIN CERTIFICATE-----
MIICoTCCAgqgAwIBAgIJAJX4i1W6vnGCMA0GCSqGSIb3DQEBBQUAMFMxCzAJBgNV
BAYTAkFVMRMwEQYDVQQIDApTb21lLVN0YXRlMSEwHwYDVQQKDBhJbnRlcm5ldCBX
aWRnaXRzIFB0eSBMdGQxDDAKBgNVBAMMA2NhMTAeFw0xMzA4MDUxMzEzMzBaFw0x
NDA4MDUxMzEzMzBaMFUxCzAJBgNVBAYTAkFVMRMwEQYDVQQIDApTb21lLVN0YXRl
MSEwHwYDVQQKDBhJbnRlcm5ldCBXaWRnaXRzIFB0eSBMdGQxDjAMBgNVBAMMBXRl
c3QxMIGfMA0GCSqGSIb3DQEBAQUAA4GNADCBiQKBgQDVbZSZAMGuc0wnMII2ce6c
KOeSspbzLhrfQL8gMDBZsfURUITDwGw0x9bNHK3T25ZT0txR/DVFkFRg/f0ruREH
+Ue2D9378mA09ce+ohU9YnPSfGVXdyX72/KrTquY9nLKyyv3eK+S676JZqwgtfER
n2+VsXzz0/OZ1PrGFgHP6QIDAQABo3sweTAJBgNVHRMEAjAAMCwGCWCGSAGG+EIB
DQQfFh1PcGVuU1NMIEdlbmVyYXRlZCBDZXJ0aWZpY2F0ZTAdBgNVHQ4EFgQUuc47
i7G3GM90h/wG53++9K2phRUwHwYDVR0jBBgwFoAUtL75jLeb7XhjY2cjNEU8MzNB
9wMwDQYJKoZIhvcNAQEFBQADgYEAhOJad89CoGTFYw/3cI9RZJnBR98UHBu/p//L
X72atlQFwzTJg75rhOrT3d9KhA2ij7QfbyiMFQu6KkxfoMojpTSLK+Ktfit0D0Rk
CrA4MBw86QlpqDw+UGkuzSvFuuWSQtoXO0OJTMWWkGyDuNC7kIOjhEUeq4CViqXg
MX9356A=
-----END CERTIFICATE-----
