Certificate:
    Data:
        Version: 3 (0x2)
        Serial Number:
            83:62:ed:bf:cc:13:2c:22
    Signature Algorithm: sha1WithRSAEncryption
        Issuer: C=AU, ST=Some-State, O=Internet Widgits Pty Ltd, CN=efw CA1
        Validity
            Not Before: Aug 26 17:17:31 2013 GMT
            Not After : Aug 26 17:17:31 2014 GMT
        Subject: C=IT, O=efw, CN=SECE
        Subject Public Key Info:
            Public Key Algorithm: rsaEncryption
                Public-Key: (2048 bit)
                Modulus:
                    00:ec:84:de:c8:d1:d6:05:4f:5d:42:e6:1b:df:1d:
                    e9:19:c6:aa:7b:0e:40:01:ea:5b:ab:2f:39:cc:77:
                    ce:5c:0d:98:ed:90:ca:97:c8:0b:b3:44:41:95:ad:
                    75:35:0c:8a:a0:0e:21:f5:1c:78:d6:fb:40:dc:df:
                    7d:8d:83:9a:de:a0:06:fd:70:b4:40:6e:d5:7b:dd:
                    74:24:39:12:81:cc:4a:16:cb:61:45:bf:67:58:76:
                    8c:92:99:c2:88:ca:b0:1d:5d:95:03:3b:bd:55:40:
                    74:82:cb:42:5f:7f:35:7c:44:cc:2b:e0:73:a3:13:
                    4a:10:57:f4:48:7c:2d:48:58:c6:47:7c:bd:08:cd:
                    84:1e:56:0b:c5:09:5d:19:7f:ff:81:e7:7c:dc:25:
                    17:cf:a5:5b:10:fe:b2:e8:0c:2a:c4:48:6f:6c:3f:
                    f6:29:b8:aa:aa:0d:18:77:73:9c:a6:69:66:67:39:
                    e7:4c:a5:31:eb:2d:97:8e:11:fc:9f:45:94:42:d6:
                    3d:4b:f3:8d:7b:ba:a7:06:ac:66:73:e7:4a:8b:57:
                    e5:61:0c:f9:80:3c:5f:ac:46:18:f7:b3:01:a1:28:
                    b0:7b:70:92:2e:44:a2:03:e4:a3:59:4e:10:60:29:
                    26:ee:58:41:2f:ac:d8:66:8a:3c:bc:26:38:53:ea:
                    41:fb
                Exponent: 65537 (0x10001)
        X509v3 extensions:
            X509v3 Basic Constraints: 
                CA:FALSE
            Netscape Comment: 
                OpenSSL Generated Certificate
            X509v3 Subject Key Identifier: 
                AE:04:3E:5D:69:A6:8F:E3:39:39:65:CA:62:BA:10:E6:8E:01:99:3D
            X509v3 Authority Key Identifier: 
                keyid:BA:28:F7:E3:C7:EF:FC:A5:B0:00:F7:3B:3F:F1:96:A2:35:92:86:09

    Signature Algorithm: sha1WithRSAEncryption
         dc:49:42:fc:29:4f:2f:1b:88:6d:34:1d:fd:c2:9c:aa:28:3f:
         32:e6:a1:12:ee:c9:7c:56:0b:3d:a7:2f:4e:85:cc:b7:48:94:
         b6:76:8d:b5:65:3f:c8:1b:79:db:fe:df:92:3e:49:97:30:e6:
         92:7d:a9:c1:4e:c8:70:60:84:1f:18:6f:31:59:59:b7:5f:aa:
         f0:2d:26:50:c5:01:c3:32:e5:bb:97:3c:08:fd:d9:fe:6b:b0:
         9d:cf:ad:2c:98:0a:ba:e8:a3:ce:0d:8b:eb:ea:50:c2:98:9e:
         02:94:f8:5b:3c:ba:14:43:14:62:ae:41:b7:4d:55:ac:94:8c:
         7d:2f
-----BEGIN CERTIFICATE-----
MIIC/jCCAmegAwIBAgIJAINi7b/MEywiMA0GCSqGSIb3DQEBBQUAMFcxCzAJBgNV
BAYTAkFVMRMwEQYDVQQIDApTb21lLVN0YXRlMSEwHwYDVQQKDBhJbnRlcm5ldCBX
aWRnaXRzIFB0eSBMdGQxEDAOBgNVBAMMB2VmdyBDQTEwHhcNMTMwODI2MTcxNzMx
WhcNMTQwODI2MTcxNzMxWjAqMQswCQYDVQQGEwJJVDEMMAoGA1UECgwDZWZ3MQ0w
CwYDVQQDDARTRUNFMIIBIjANBgkqhkiG9w0BAQEFAAOCAQ8AMIIBCgKCAQEA7ITe
yNHWBU9dQuYb3x3pGcaqew5AAepbqy85zHfOXA2Y7ZDKl8gLs0RBla11NQyKoA4h
9Rx41vtA3N99jYOa3qAG/XC0QG7Ve910JDkSgcxKFsthRb9nWHaMkpnCiMqwHV2V
Azu9VUB0gstCX381fETMK+BzoxNKEFf0SHwtSFjGR3y9CM2EHlYLxQldGX//ged8
3CUXz6VbEP6y6AwqxEhvbD/2Kbiqqg0Yd3OcpmlmZznnTKUx6y2XjhH8n0WUQtY9
S/ONe7qnBqxmc+dKi1flYQz5gDxfrEYY97MBoSiwe3CSLkSiA+SjWU4QYCkm7lhB
L6zYZoo8vCY4U+pB+wIDAQABo3sweTAJBgNVHRMEAjAAMCwGCWCGSAGG+EIBDQQf
Fh1PcGVuU1NMIEdlbmVyYXRlZCBDZXJ0aWZpY2F0ZTAdBgNVHQ4EFgQUrgQ+XWmm
j+M5OWXKYroQ5o4BmT0wHwYDVR0jBBgwFoAUuij348fv/KWwAPc7P/GWojWShgkw
DQYJKoZIhvcNAQEFBQADgYEA3ElC/ClPLxuIbTQd/cKcqig/MuahEu7JfFYLPacv
ToXMt0iUtnaNtWU/yBt52/7fkj5JlzDmkn2pwU7IcGCEHxhvMVlZt1+q8C0mUMUB
wzLlu5c8CP3Z/muwnc+tLJgKuuijzg2L6+pQwpieApT4Wzy6FEMUYq5Bt01VrJSM
fS8=
-----END CERTIFICATE-----
